; ModuleID = 'source-C-CXX/34/392.c'
source_filename = "source-C-CXX/34/392.c"
target datalayout = "e-m:e-p270:32:32-p271:32:32-p272:64:64-i64:64-f80:128-n8:16:32:64-S128"
target triple = "x86_64-pc-linux-gnu"

@.str = private unnamed_addr constant [6 x i8] c"%d,%d\00", align 1
@.str.1 = private unnamed_addr constant [3 x i8] c"%d\00", align 1
@.str.2 = private unnamed_addr constant [6 x i8] c"%d+%d\00", align 1
@.str.3 = private unnamed_addr constant [3 x i8] c"No\00", align 1

; Function Attrs: nofree nounwind sspstrong uwtable
define dso_local void @main() local_unnamed_addr #0 {
  %1 = alloca [9 x [9 x i32]], align 16
  %2 = alloca i32, align 4
  %3 = alloca i32, align 4
  %4 = bitcast [9 x [9 x i32]]* %1 to i8*
  call void @llvm.lifetime.start.p0i8(i64 324, i8* nonnull %4) #3
  %5 = bitcast i32* %2 to i8*
  call void @llvm.lifetime.start.p0i8(i64 4, i8* nonnull %5) #3
  %6 = bitcast i32* %3 to i8*
  call void @llvm.lifetime.start.p0i8(i64 4, i8* nonnull %6) #3
  %7 = call i32 (i8*, ...) @__isoc99_scanf(i8* getelementptr inbounds ([6 x i8], [6 x i8]* @.str, i64 0, i64 0), i32* nonnull %2, i32* nonnull %3)
  %8 = load i32, i32* %2, align 4, !tbaa !5
  %9 = icmp sgt i32 %8, 0
  %10 = load i32, i32* %3, align 4
  %11 = icmp sgt i32 %10, 0
  %12 = select i1 %9, i1 %11, i1 false
  br i1 %12, label %13, label %114

13:                                               ; preds = %0, %33
  %14 = phi i32 [ %34, %33 ], [ %8, %0 ]
  %15 = phi i32 [ %35, %33 ], [ %10, %0 ]
  %16 = phi i64 [ %36, %33 ], [ 0, %0 ]
  %17 = icmp sgt i32 %15, 0
  br i1 %17, label %23, label %33

18:                                               ; preds = %33
  %19 = icmp sgt i32 %34, 0
  %20 = load i32, i32* %3, align 4
  %21 = icmp sgt i32 %20, 0
  %22 = select i1 %19, i1 %21, i1 false
  br i1 %22, label %39, label %114

23:                                               ; preds = %13, %23
  %24 = phi i64 [ %27, %23 ], [ 0, %13 ]
  %25 = getelementptr inbounds [9 x [9 x i32]], [9 x [9 x i32]]* %1, i64 0, i64 %16, i64 %24
  %26 = call i32 (i8*, ...) @__isoc99_scanf(i8* getelementptr inbounds ([3 x i8], [3 x i8]* @.str.1, i64 0, i64 0), i32* nonnull %25)
  %27 = add nuw nsw i64 %24, 1
  %28 = load i32, i32* %3, align 4, !tbaa !5
  %29 = sext i32 %28 to i64
  %30 = icmp slt i64 %27, %29
  br i1 %30, label %23, label %31, !llvm.loop !9

31:                                               ; preds = %23
  %32 = load i32, i32* %2, align 4, !tbaa !5
  br label %33

33:                                               ; preds = %31, %13
  %34 = phi i32 [ %32, %31 ], [ %14, %13 ]
  %35 = phi i32 [ %28, %31 ], [ %15, %13 ]
  %36 = add nuw nsw i64 %16, 1
  %37 = sext i32 %34 to i64
  %38 = icmp slt i64 %36, %37
  br i1 %38, label %13, label %18, !llvm.loop !11

39:                                               ; preds = %18, %104
  %40 = phi i32 [ %105, %104 ], [ %34, %18 ]
  %41 = phi i32 [ %106, %104 ], [ %20, %18 ]
  %42 = phi i32 [ %107, %104 ], [ %20, %18 ]
  %43 = phi i64 [ %109, %104 ], [ 0, %18 ]
  %44 = phi i32 [ %108, %104 ], [ undef, %18 ]
  %45 = icmp sgt i32 %42, 0
  br i1 %45, label %46, label %104

46:                                               ; preds = %39
  %47 = trunc i64 %43 to i32
  br label %48

48:                                               ; preds = %46, %96
  %49 = phi i32 [ %41, %46 ], [ %97, %96 ]
  %50 = phi i64 [ 0, %46 ], [ %99, %96 ]
  %51 = phi i32 [ %42, %46 ], [ %97, %96 ]
  %52 = phi i32 [ %44, %46 ], [ %98, %96 ]
  %53 = icmp sgt i32 %51, 0
  br i1 %53, label %54, label %68

54:                                               ; preds = %48
  %55 = getelementptr inbounds [9 x [9 x i32]], [9 x [9 x i32]]* %1, i64 0, i64 %43, i64 %50
  %56 = load i32, i32* %55, align 4, !tbaa !5
  %57 = zext i32 %51 to i64
  br label %58

58:                                               ; preds = %54, %63
  %59 = phi i64 [ 0, %54 ], [ %64, %63 ]
  %60 = getelementptr inbounds [9 x [9 x i32]], [9 x [9 x i32]]* %1, i64 0, i64 %43, i64 %59
  %61 = load i32, i32* %60, align 4, !tbaa !5
  %62 = icmp sgt i32 %61, %56
  br i1 %62, label %66, label %63

63:                                               ; preds = %58
  %64 = add nuw nsw i64 %59, 1
  %65 = icmp eq i64 %64, %57
  br i1 %65, label %71, label %58, !llvm.loop !13

66:                                               ; preds = %58
  %67 = trunc i64 %59 to i32
  br label %68

68:                                               ; preds = %66, %48
  %69 = phi i32 [ 0, %48 ], [ %67, %66 ]
  %70 = icmp eq i32 %69, %51
  br i1 %70, label %71, label %96

71:                                               ; preds = %63, %68
  %72 = load i32, i32* %2, align 4, !tbaa !5
  %73 = icmp sgt i32 %72, 0
  br i1 %73, label %74, label %88

74:                                               ; preds = %71
  %75 = getelementptr inbounds [9 x [9 x i32]], [9 x [9 x i32]]* %1, i64 0, i64 %43, i64 %50
  %76 = load i32, i32* %75, align 4, !tbaa !5
  %77 = zext i32 %72 to i64
  br label %78

78:                                               ; preds = %74, %83
  %79 = phi i64 [ 0, %74 ], [ %84, %83 ]
  %80 = getelementptr inbounds [9 x [9 x i32]], [9 x [9 x i32]]* %1, i64 0, i64 %79, i64 %50
  %81 = load i32, i32* %80, align 4, !tbaa !5
  %82 = icmp slt i32 %81, %76
  br i1 %82, label %86, label %83

83:                                               ; preds = %78
  %84 = add nuw nsw i64 %79, 1
  %85 = icmp eq i64 %84, %77
  br i1 %85, label %91, label %78, !llvm.loop !14

86:                                               ; preds = %78
  %87 = trunc i64 %79 to i32
  br label %88

88:                                               ; preds = %86, %71
  %89 = phi i32 [ 0, %71 ], [ %87, %86 ]
  %90 = icmp eq i32 %89, %72
  br i1 %90, label %91, label %96

91:                                               ; preds = %83, %88
  %92 = trunc i64 %50 to i32
  %93 = call i32 (i8*, ...) @printf(i8* nonnull dereferenceable(1) getelementptr inbounds ([6 x i8], [6 x i8]* @.str.2, i64 0, i64 0), i32 %47, i32 %92)
  %94 = add nsw i32 %52, 1
  %95 = load i32, i32* %3, align 4, !tbaa !5
  br label %96

96:                                               ; preds = %68, %91, %88
  %97 = phi i32 [ %95, %91 ], [ %49, %88 ], [ %49, %68 ]
  %98 = phi i32 [ %94, %91 ], [ %52, %88 ], [ %52, %68 ]
  %99 = add nuw nsw i64 %50, 1
  %100 = sext i32 %97 to i64
  %101 = icmp slt i64 %99, %100
  br i1 %101, label %48, label %102, !llvm.loop !15

102:                                              ; preds = %96
  %103 = load i32, i32* %2, align 4, !tbaa !5
  br label %104

104:                                              ; preds = %102, %39
  %105 = phi i32 [ %40, %39 ], [ %103, %102 ]
  %106 = phi i32 [ %41, %39 ], [ %97, %102 ]
  %107 = phi i32 [ %42, %39 ], [ %97, %102 ]
  %108 = phi i32 [ %44, %39 ], [ %98, %102 ]
  %109 = add nuw nsw i64 %43, 1
  %110 = sext i32 %105 to i64
  %111 = icmp slt i64 %109, %110
  br i1 %111, label %39, label %112, !llvm.loop !16

112:                                              ; preds = %104
  %113 = icmp eq i32 %108, 0
  br i1 %113, label %114, label %116

114:                                              ; preds = %0, %18, %112
  %115 = call i32 (i8*, ...) @printf(i8* nonnull dereferenceable(1) getelementptr inbounds ([3 x i8], [3 x i8]* @.str.3, i64 0, i64 0))
  br label %116

116:                                              ; preds = %114, %112
  call void @llvm.lifetime.end.p0i8(i64 4, i8* nonnull %6) #3
  call void @llvm.lifetime.end.p0i8(i64 4, i8* nonnull %5) #3
  call void @llvm.lifetime.end.p0i8(i64 324, i8* nonnull %4) #3
  ret void
}

; Function Attrs: argmemonly mustprogress nofree nosync nounwind willreturn
declare void @llvm.lifetime.start.p0i8(i64 immarg, i8* nocapture) #1

; Function Attrs: nofree nounwind
declare noundef i32 @__isoc99_scanf(i8* nocapture noundef readonly, ...) local_unnamed_addr #2

; Function Attrs: nofree nounwind
declare noundef i32 @printf(i8* nocapture noundef readonly, ...) local_unnamed_addr #2

; Function Attrs: argmemonly mustprogress nofree nosync nounwind willreturn
declare void @llvm.lifetime.end.p0i8(i64 immarg, i8* nocapture) #1


!llvm.module.flags = !{!0, !1, !2, !3}
!llvm.ident = !{!4}

!0 = !{i32 1, !"wchar_size", i32 4}
!1 = !{i32 7, !"PIC Level", i32 2}
!2 = !{i32 7, !"PIE Level", i32 2}
!3 = !{i32 7, !"uwtable", i32 1}
!4 = !{!"clang version 13.0.0"}
!5 = !{!6, !6, i64 0}
!6 = !{!"int", !7, i64 0}
!7 = !{!"omnipotent char", !8, i64 0}
!8 = !{!"Simple C/C++ TBAA"}
!9 = distinct !{!9, !10}
!10 = !{!"llvm.loop.mustprogress"}
!11 = distinct !{!11, !10, !12}
!12 = !{!"llvm.loop.unswitch.partial.disable"}
!13 = distinct !{!13, !10}
!14 = distinct !{!14, !10}
!15 = distinct !{!15, !10}
!16 = distinct !{!16, !10, !12}
